(lp0
(I1
I1
tp1
a(I1
I1
tp2
a(I1
I1
tp3
a(I1
I1
tp4
a(I1
I1
tp5
a(I1
I1
tp6
a(I1
I1
tp7
a(I1
I1
tp8
a(I1
I1
tp9
a(I1
I1
tp10
a(I1
I1
tp11
a(I1
I1
tp12
a(I1
I1
tp13
a(I1
I1
tp14
a(I1
I1
tp15
a(I1
I1
tp16
a(I1
I1
tp17
a(I1
I1
tp18
a(I1
I1
tp19
a(I1
I1
tp20
a(I1
I1
tp21
a(I1
I1
tp22
a(I1
I1
tp23
a(I1
I1
tp24
a(I1
I1
tp25
a(I1
I1
tp26
a(I1
I1
tp27
a(I1
I1
tp28
a(I1
I1
tp29
a(I1
I1
tp30
a(I1
I1
tp31
a(I2
I0
tp32
a(I2
I0
tp33
a(I2
I0
tp34
a(I2
I0
tp35
a(I2
I0
tp36
a(I2
I0
tp37
a(I2
I0
tp38
a(I2
I0
tp39
a(I2
I0
tp40
a(I2
I0
tp41
a(I2
I0
tp42
a(I2
I0
tp43
a(I2
I0
tp44
a(I2
I0
tp45
a(I2
I0
tp46
a(I2
I0
tp47
a(I2
I0
tp48
a(I3
I1
tp49
a(I3
I1
tp50
a(I3
I1
tp51
a(I3
I1
tp52
a(I3
I1
tp53
a(I3
I0
tp54
a(I3
I0
tp55
a(I3
I0
tp56
a(I3
I0
tp57
a(I3
I0
tp58
a(I3
I0
tp59
a(I3
I0
tp60
a(I3
I0
tp61
a(I4
I0
tp62
a(I4
I0
tp63
a(I4
I0
tp64
a(I4
I0
tp65
a(I4
I0
tp66
a(I4
I0
tp67
a(I4
I0
tp68
a(I4
I0
tp69
a(I4
I0
tp70
a(I5
I1
tp71
a(I5
I1
tp72
a(I5
I1
tp73
a(I5
I1
tp74
a(I5
I1
tp75
a(I5
I1
tp76
a(I5
I0
tp77
a(I5
I0
tp78
a(I6
I1
tp79
a(I6
I1
tp80
a(I6
I1
tp81
a(I6
I1
tp82
a(I6
I1
tp83
a(I6
I1
tp84
a(I6
I1
tp85
a(I7
I2
tp86
a(I7
I2
tp87
a(I7
I2
tp88
a(I7
I1
tp89
a(I7
I1
tp90
a(I7
I0
tp91
a(I8
I1
tp92
a(I8
I1
tp93
a(I8
I1
tp94
a(I8
I1
tp95
a(I8
I1
tp96
a(I9
I2
tp97
a(I9
I2
tp98
a(I9
I2
tp99
a(I9
I2
tp100
a(I10
I2
tp101
a(I10
I2
tp102
a(I10
I2
tp103
a(I10
I1
tp104
a(I10
I1
tp105
a(I11
I1
tp106
a(I11
I1
tp107
a(I11
I0
tp108
a(I12
I1
tp109
a(I12
I1
tp110
a(I12
I1
tp111
a(I12
I1
tp112
a(I13
I1
tp113
a(I13
I1
tp114
a(I13
I1
tp115
a(I14
I2
tp116
a(I14
I2
tp117
a(I14
I2
tp118
a(I15
I3
tp119
a(I15
I3
tp120
a(I15
I2
tp121
a(I16
I3
tp122
a(I16
I3
tp123
a(I16
I1
tp124
a(I17
I2
tp125
a(I17
I2
tp126
a(I18
I2
tp127
a(I18
I2
tp128
a(I19
I3
tp129
a(I19
I2
tp130
a(I19
I2
tp131
a(I20
I3
tp132
a(I20
I3
tp133
a(I21
I2
tp134
a(I21
I2
tp135
a(I22
I3
tp136
a(I22
I2
tp137
a(I23
I3
tp138
a(I23
I1
tp139
a(I24
I2
tp140
a(I25
I2
tp141
a(I25
I2
tp142
a(I26
I3
tp143
a(I26
I3
tp144
a(I27
I3
tp145
a(I28
I4
tp146
a(I28
I4
tp147
a(I29
I5
tp148
a(I30
I6
tp149
a(I30
I6
tp150
a(I31
I7
tp151
a(I32
I6
tp152
a(I33
I4
tp153
a(I33
I4
tp154
a(I34
I5
tp155
a(I35
I6
tp156
a(I36
I5
tp157
a(I37
I5
tp158
a(I38
I4
tp159
a(I38
I3
tp160
a(I39
I4
tp161
a(I40
I4
tp162
a(I41
I5
tp163
a(I42
I5
tp164
a(I43
I5
tp165
a(I44
I3
tp166
a(I45
I4
tp167
a(I46
I4
tp168
a(I47
I4
tp169
a(I48
I4
tp170
a(I50
I4
tp171
a(I51
I5
tp172
a(I52
I6
tp173
a(I53
I7
tp174
a(I54
I7
tp175
a(I56
I8
tp176
a(I57
I9
tp177
a(I58
I5
tp178
a(I60
I7
tp179
a(I61
I8
tp180
a(I63
I10
tp181
a(I64
I9
tp182
a(I66
I11
tp183
a(I67
I11
tp184
a(I69
I13
tp185
a(I70
I13
tp186
a(I72
I14
tp187
a(I74
I16
tp188
a(I75
I15
tp189
a(I77
I17
tp190
a(I79
I16
tp191
a(I81
I17
tp192
a(I83
I18
tp193
a(I85
I19
tp194
a(I87
I18
tp195
a(I89
I19
tp196
a(I91
I18
tp197
a(I93
I18
tp198
a(I95
I16
tp199
a(I97
I18
tp200
a(I100
I19
tp201
a(I102
I17
tp202
a(I104
I17
tp203
a(I107
I18
tp204
a(I109
I18
tp205
a(I112
I18
tp206
a(I114
I20
tp207
a(I117
I22
tp208
a(I120
I22
tp209
a(I123
I22
tp210
a(I125
I22
tp211
a(I128
I25
tp212
a(I131
I24
tp213
a(I134
I23
tp214
a(I138
I25
tp215
a(I141
I27
tp216
a(I144
I28
tp217
a(I147
I30
tp218
a(I151
I32
tp219
a(I154
I34
tp220
a(I158
I34
tp221
a(I162
I37
tp222
a(I165
I34
tp223
a(I169
I37
tp224
a(I173
I37
tp225
a(I177
I38
tp226
a(I181
I36
tp227
a(I186
I39
tp228
a(I190
I39
tp229
a(I194
I41
tp230
a(I199
I41
tp231
a(I204
I44
tp232
a(I208
I42
tp233
a(I213
I44
tp234
a(I218
I46
tp235
a(I223
I44
tp236
a(I229
I46
tp237
a(I234
I45
tp238
a(I239
I47
tp239
a(I245
I48
tp240
a(I251
I47
tp241
a(I257
I47
tp242
a(I263
I50
tp243
a(I269
I51
tp244
a(I275
I52
tp245
a(I281
I50
tp246
a(I288
I53
tp247
a(I295
I57
tp248
a(I301
I57
tp249
a(I309
I58
tp250
a(I316
I58
tp251
a(I323
I60
tp252
a(I331
I63
tp253
a(I338
I61
tp254
a(I346
I61
tp255
a(I354
I63
tp256
a(I363
I62
tp257
a(I371
I65
tp258
a(I380
I68
tp259
a(I389
I71
tp260
a(I398
I77
tp261
a(I407
I82
tp262
a(I416
I85
tp263
a(I426
I90
tp264
a(I436
I92
tp265
a(I446
I96
tp266
a(I457
I101
tp267
a(I467
I100
tp268
a(I478
I105
tp269
a(I489
I101
tp270
a(I501
I102
tp271
a(I512
I97
tp272
a(I524
I96
tp273
a(I537
I98
tp274
a(I549
I103
tp275
a(I562
I101
tp276
a(I575
I103
tp277
a(I588
I107
tp278
a(I602
I113
tp279
a(I616
I110
tp280
a(I630
I107
tp281
a(I645
I112
tp282
a(I660
I112
tp283
a(I676
I115
tp284
a(I691
I118
tp285
a(I707
I122
tp286
a(I724
I131
tp287
a(I741
I137
tp288
a(I758
I139
tp289
a(I776
I146
tp290
a(I794
I152
tp291
a(I812
I159
tp292
a(I831
I167
tp293
a(I851
I168
tp294
a(I870
I172
tp295
a(I891
I174
tp296
a(I912
I176
tp297
a(I933
I185
tp298
a(I954
I186
tp299
a(I977
I187
tp300
a(I999
I188
tp301
a(I1023
I189
tp302
a(I1047
I199
tp303
a(I1071
I200
tp304
a(I1096
I202
tp305
a(I1122
I207
tp306
a(I1148
I208
tp307
a(I1174
I216
tp308
a(I1202
I221
tp309
a(I1230
I229
tp310
a(I1258
I228
tp311
a(I1288
I230
tp312
a(I1318
I244
tp313
a(I1348
I247
tp314
a(I1380
I243
tp315
a(I1412
I252
tp316
a(I1445
I256
tp317
a(I1479
I273
tp318
a(I1513
I286
tp319
a(I1548
I295
tp320
a(I1584
I301
tp321
a(I1621
I309
tp322
a(I1659
I318
tp323
a(I1698
I327
tp324
a(I1737
I338
tp325
a(I1778
I345
tp326
a(I1819
I340
tp327
a(I1862
I346
tp328
a(I1905
I359
tp329
a(I1949
I373
tp330
a(I1995
I384
tp331
a(I2041
I395
tp332
a(I2089
I408
tp333
a(I2137
I413
tp334
a(I2187
I406
tp335
a(I2238
I420
tp336
a(I2290
I426
tp337
a(I2344
I432
tp338
a(I2398
I445
tp339
a(I2454
I439
tp340
a(I2511
I459
tp341
a(I2570
I468
tp342
a(I2630
I477
tp343
a(I2691
I494
tp344
a(I2754
I502
tp345
a(I2818
I502
tp346
a(I2884
I518
tp347
a(I2951
I532
tp348
a(I3019
I555
tp349
a(I3090
I562
tp350
a(I3162
I590
tp351
a(I3235
I601
tp352
a(I3311
I613
tp353
a(I3388
I623
tp354
a(I3467
I641
tp355
a(I3548
I649
tp356
a(I3630
I671
tp357
a(I3715
I685
tp358
a(I3801
I696
tp359
a(I3890
I726
tp360
a(I3981
I743
tp361
a(I4073
I770
tp362
a(I4168
I783
tp363
a(I4265
I802
tp364
a(I4365
I816
tp365
a(I4466
I822
tp366
a(I4570
I843
tp367
a(I4677
I874
tp368
a(I4786
I876
tp369
a(I4897
I910
tp370
a(I5011
I925
tp371
a(I5128
I930
tp372
a(I5248
I956
tp373
a(I5370
I996
tp374
a(I5495
I1017
tp375
a(I5623
I1030
tp376
a(I5754
I1075
tp377
a(I5888
I1094
tp378
a(I6025
I1128
tp379
a(I6165
I1159
tp380
a(I6309
I1198
tp381
a(I6456
I1234
tp382
a(I6606
I1242
tp383
a(I6760
I1270
tp384
a(I6918
I1304
tp385
a(I7079
I1331
tp386
a(I7244
I1378
tp387
a(I7413
I1401
tp388
a(I7585
I1426
tp389
a(I7762
I1467
tp390
a(I7943
I1503
tp391
a(I8128
I1553
tp392
a(I8317
I1576
tp393
a(I8511
I1619
tp394
a(I8709
I1666
tp395
a(I8912
I1703
tp396
a(I9120
I1755
tp397
a(I9332
I1797
tp398
a(I9549
I1800
tp399
a(I9772
I1853
tp400
a(I9999
I1898
tp401
a(I10232
I1953
tp402
a(I10471
I2010
tp403
a(I10715
I2054
tp404
a(I10964
I2120
tp405
a(I11220
I2192
tp406
a(I11481
I2229
tp407
a(I11748
I2271
tp408
a(I12022
I2307
tp409
a(I12302
I2354
tp410
a(I12589
I2408
tp411
a(I12882
I2479
tp412
a(I13182
I2535
tp413
a(I13489
I2561
tp414
a(I13803
I2628
tp415
a(I14125
I2680
tp416
a(I14454
I2758
tp417
a(I14791
I2823
tp418
a(I15135
I2885
tp419
a(I15488
I2972
tp420
a(I15848
I3034
tp421
a(I16218
I3081
tp422
a(I16595
I3177
tp423
a(I16982
I3231
tp424
a(I17378
I3322
tp425
a(I17782
I3355
tp426
a(I18197
I3431
tp427
a(I18620
I3512
tp428
a(I19054
I3594
tp429
a(I19498
I3689
tp430
a(I19952
I3770
tp431
a(I20417
I3849
tp432
a(I20892
I3931
tp433
a(I21379
I4037
tp434
a(I21877
I4117
tp435
a(I22387
I4205
tp436
a(I22908
I4345
tp437
a(I23442
I4411
tp438
a(I23988
I4495
tp439
a(I24547
I4610
tp440
a(I25118
I4721
tp441
a.